; Function Attrs: mustprogress nounwind uwtable
define dso_local void @_ZN5clang6format19UnwrappedLineParser19parseRequiresClauseEPNS0_11FormatTokenE(ptr noundef nonnull align 8 dereferenceable(3592) %0, ptr nocapture noundef %1) local_unnamed_addr #0 align 2 {
  %3 = getelementptr inbounds nuw i8, ptr %1, i64 208
  %4 = load ptr, ptr %3, align 8
  %.not = icmp eq ptr %4, null
  br i1 %.not, label %.critedge, label %5

5:                                                ; preds = %2
  %6 = getelementptr inbounds nuw i8, ptr %4, i64 67
  %7 = load i8, ptr %6, align 1
  %8 = icmp eq i8 %7, 106
  %9 = getelementptr inbounds nuw i8, ptr %1, i64 256
  %10 = getelementptr inbounds i8, ptr %1, i64 296
  %11 = load i8, ptr %10, align 8
  %12 = trunc i8 %11 to i1
  %13 = load i32, ptr %9, align 8
  %14 = icmp eq i32 %13, 1
  %or.cond.i = select i1 %12, i1 %14, i1 false
  br i1 %or.cond.i, label %_ZN5clang6format11FormatToken16setFinalizedTypeENS0_9TokenTypeE.exit, label %15

15:                                               ; preds = %5
  %16 = select i1 %8, i8 104, i8 103
  %17 = getelementptr inbounds nuw i8, ptr %1, i64 67
  store i8 %16, ptr %17, align 1
  %18 = getelementptr inbounds nuw i8, ptr %1, i64 65
  %19 = load i16, ptr %18, align 1
  %20 = or i16 %19, 8192
  store i16 %20, ptr %18, align 1
  br label %_ZN5clang6format11FormatToken16setFinalizedTypeENS0_9TokenTypeE.exit

_ZN5clang6format11FormatToken16setFinalizedTypeENS0_9TokenTypeE.exit: ; preds = %5, %15
  tail call void @_ZN5clang6format19UnwrappedLineParser25parseConstraintExpressionEv(ptr noundef nonnull align 8 dereferenceable(3592) %0)
  br i1 %8, label %40, label %21

21:                                               ; preds = %_ZN5clang6format11FormatToken16setFinalizedTypeENS0_9TokenTypeE.exit
  %22 = getelementptr inbounds nuw i8, ptr %0, i64 984
  %23 = load ptr, ptr %22, align 8
  %24 = getelementptr inbounds nuw i8, ptr %23, i64 208
  %25 = load ptr, ptr %24, align 8
  %26 = getelementptr inbounds nuw i8, ptr %25, i64 65
  %27 = load i16, ptr %26, align 1
  %28 = or i16 %27, 32
  store i16 %28, ptr %26, align 1
  br label %40

.critedge:                                        ; preds = %2
  %29 = getelementptr inbounds nuw i8, ptr %1, i64 256
  %30 = getelementptr inbounds i8, ptr %1, i64 296
  %31 = load i8, ptr %30, align 8
  %32 = trunc i8 %31 to i1
  %33 = load i32, ptr %29, align 8
  %34 = icmp eq i32 %33, 1
  %or.cond.i5 = select i1 %32, i1 %34, i1 false
  br i1 %or.cond.i5, label %_ZN5clang6format11FormatToken16setFinalizedTypeENS0_9TokenTypeE.exit6, label %35

35:                                               ; preds = %.critedge
  %36 = getelementptr inbounds nuw i8, ptr %1, i64 67
  store i8 104, ptr %36, align 1
  %37 = getelementptr inbounds nuw i8, ptr %1, i64 65
  %38 = load i16, ptr %37, align 1
  %39 = or i16 %38, 8192
  store i16 %39, ptr %37, align 1
  br label %_ZN5clang6format11FormatToken16setFinalizedTypeENS0_9TokenTypeE.exit6

_ZN5clang6format11FormatToken16setFinalizedTypeENS0_9TokenTypeE.exit6: ; preds = %.critedge, %35
  tail call void @_ZN5clang6format19UnwrappedLineParser25parseConstraintExpressionEv(ptr noundef nonnull align 8 dereferenceable(3592) %0)
  br label %40

40:                                               ; preds = %_ZN5clang6format11FormatToken16setFinalizedTypeENS0_9TokenTypeE.exit6, %21, %_ZN5clang6format11FormatToken16setFinalizedTypeENS0_9TokenTypeE.exit
  ret void
}